target datalayout = "e-m:e-p270:32:32-p271:32:32-p272:64:64-i64:64-i128:128-f80:128-n8:16:32:64-S128"
target triple = "x86_64-pc-linux-gnu"

%struct.hwloc_topology = type { i32, i32, i32, ptr, ptr, i64, [20 x i32], [20 x i32], i64, i64, i32, ptr, i64, ptr, i64, [6 x %struct.hwloc_special_level_s], ptr, ptr, %struct.hwloc_binding_hooks, %struct.hwloc_topology_support, %struct.hwloc_infos_s, ptr, ptr, i32, ptr, ptr, i32, i32, ptr, i32, i32, ptr, i32, i32, i32, [5 x float], i32, ptr, ptr, i32, i32, ptr, i32, %struct.hwloc_numanode_attr_s, i32, i32, ptr, i64, i32, ptr, ptr, ptr }
%struct.hwloc_special_level_s = type { i32, ptr, ptr, ptr }
%struct.hwloc_binding_hooks = type { ptr, ptr, ptr, ptr, ptr, ptr, ptr, ptr, ptr, ptr, ptr, ptr, ptr, ptr, ptr, ptr, ptr, ptr, ptr, ptr, ptr, ptr, ptr, ptr }
%struct.hwloc_topology_support = type { ptr, ptr, ptr, ptr }
%struct.hwloc_infos_s = type { ptr, i32, i32 }
%struct.hwloc_numanode_attr_s = type { i64, i32, ptr }
%struct.hwloc_internal_memattr_s = type { ptr, i64, i32, i32, ptr }

; Function Attrs: nounwind uwtable
define i32 @hwloc_memattr_get_by_name(ptr noundef %0, ptr noundef %1, ptr noundef %2) #0 {
  %4 = alloca i32, align 4
  %5 = alloca ptr, align 8
  %6 = alloca ptr, align 8
  %7 = alloca ptr, align 8
  %8 = alloca i32, align 4
  %9 = alloca i32, align 4
  store ptr %0, ptr %5, align 8, !tbaa !3
  store ptr %1, ptr %6, align 8, !tbaa !35
  store ptr %2, ptr %7, align 8, !tbaa !69
  call void @llvm.lifetime.start.p0(i64 4, ptr %8) #14
  store i32 0, ptr %8, align 4, !tbaa !45
  br label %10

10:                                               ; preds = %32, %3
  %11 = load i32, ptr %8, align 4, !tbaa !45
  %12 = load ptr, ptr %5, align 8, !tbaa !3
  %13 = getelementptr inbounds nuw %struct.hwloc_topology, ptr %12, i32 0, i32 27
  %14 = load i32, ptr %13, align 4, !tbaa !8
  %15 = icmp ult i32 %11, %14
  br i1 %15, label %16, label %35

16:                                               ; preds = %10
  %17 = load ptr, ptr %5, align 8, !tbaa !3
  %18 = getelementptr inbounds nuw %struct.hwloc_topology, ptr %17, i32 0, i32 28
  %19 = load ptr, ptr %18, align 8, !tbaa !33
  %20 = load i32, ptr %8, align 4, !tbaa !45
  %21 = zext i32 %20 to i64
  %22 = getelementptr inbounds nuw %struct.hwloc_internal_memattr_s, ptr %19, i64 %21
  %23 = getelementptr inbounds nuw %struct.hwloc_internal_memattr_s, ptr %22, i32 0, i32 0
  %24 = load ptr, ptr %23, align 8, !tbaa !38
  %25 = load ptr, ptr %6, align 8, !tbaa !35
  %26 = call i32 @strcmp(ptr noundef %24, ptr noundef %25) #15
  %27 = icmp ne i32 %26, 0
  br i1 %27, label %31, label %28

28:                                               ; preds = %16
  %29 = load i32, ptr %8, align 4, !tbaa !45
  %30 = load ptr, ptr %7, align 8, !tbaa !69
  store i32 %29, ptr %30, align 4, !tbaa !45
  store i32 0, ptr %4, align 4
  store i32 1, ptr %9, align 4
  br label %37

31:                                               ; preds = %16
  br label %32

32:                                               ; preds = %31
  %33 = load i32, ptr %8, align 4, !tbaa !45
  %34 = add i32 %33, 1
  store i32 %34, ptr %8, align 4, !tbaa !45
  br label %10, !llvm.loop !70

35:                                               ; preds = %10
  %36 = call ptr @__errno_location() #16
  store i32 22, ptr %36, align 4, !tbaa !45
  store i32 -1, ptr %4, align 4
  store i32 1, ptr %9, align 4
  br label %37

37:                                               ; preds = %35, %28
  call void @llvm.lifetime.end.p0(i64 4, ptr %8) #14
  %38 = load i32, ptr %4, align 4
  ret i32 %38
}