; Function Attrs: nofree nounwind memory(readwrite, inaccessiblemem: none) uwtable
define range(i32 -1, 1) i32 @hwloc_memattr_get_by_name(ptr noundef readonly captures(none) %0, ptr noundef readonly captures(none) %1, ptr noundef writeonly captures(none) %2) local_unnamed_addr #8 {
  %4 = getelementptr inbounds nuw i8, ptr %0, i64 748
  %5 = load i32, ptr %4, align 4, !tbaa !3
  %.not11 = icmp eq i32 %5, 0
  br i1 %.not11, label %._crit_edge, label %.lr.ph

.lr.ph:                                           ; preds = %3
  %6 = getelementptr inbounds nuw i8, ptr %0, i64 752
  %7 = load ptr, ptr %6, align 8, !tbaa !31
  %wide.trip.count = zext i32 %5 to i64
  br label %8

8:                                                ; preds = %.lr.ph, %14
  %indvars.iv = phi i64 [ 0, %.lr.ph ], [ %indvars.iv.next, %14 ]
  %9 = getelementptr inbounds nuw %struct.hwloc_internal_memattr_s, ptr %7, i64 %indvars.iv
  %10 = load ptr, ptr %9, align 8, !tbaa !32
  %11 = tail call i32 @strcmp(ptr noundef nonnull dereferenceable(1) %10, ptr noundef nonnull dereferenceable(1) %1) #30
  %.not = icmp eq i32 %11, 0
  br i1 %.not, label %12, label %14

12:                                               ; preds = %8
  %13 = trunc nuw i64 %indvars.iv to i32
  store i32 %13, ptr %2, align 4, !tbaa !60
  br label %16

14:                                               ; preds = %8
  %indvars.iv.next = add nuw nsw i64 %indvars.iv, 1
  %exitcond.not = icmp eq i64 %indvars.iv.next, %wide.trip.count
  br i1 %exitcond.not, label %._crit_edge, label %8, !llvm.loop !61

._crit_edge:                                      ; preds = %14, %3
  %15 = tail call ptr @__errno_location() #31
  store i32 22, ptr %15, align 4, !tbaa !60
  br label %16

16:                                               ; preds = %._crit_edge, %12
  %.08 = phi i32 [ 0, %12 ], [ -1, %._crit_edge ]
  ret i32 %.08
}